target datalayout = "e-m:e-p270:32:32-p271:32:32-p272:64:64-i64:64-i128:128-f80:128-n8:16:32:64-S128"
target triple = "x86_64-pc-linux-gnu"

%struct.t_atoms = type { i32, ptr, ptr, ptr, ptr, i32, ptr, ptr, i8, i8, i8, i8, i8 }
%struct.t_atom = type { float, float, float, float, i16, i16, i32, i32, i32, [4 x i8] }
%struct.t_resinfo = type { ptr, i32, i8, i32, i8, ptr }

; Function Attrs: mustprogress nounwind uwtable
define internal void @_ZL11renum_resnrP7t_atomsiPKii(ptr noundef %0, i32 noundef %1, ptr noundef %2, i32 noundef %3) #3 {
  %5 = alloca ptr, align 8
  %6 = alloca i32, align 4
  %7 = alloca ptr, align 8
  %8 = alloca i32, align 4
  %9 = alloca i32, align 4
  %10 = alloca i32, align 4
  %11 = alloca i32, align 4
  store ptr %0, ptr %5, align 8
  store i32 %1, ptr %6, align 4
  store ptr %2, ptr %7, align 8
  store i32 %3, ptr %8, align 4
  store i32 -1, ptr %10, align 4
  store i32 0, ptr %9, align 4
  br label %12

12:                                               ; preds = %52, %4
  %13 = load i32, ptr %9, align 4
  %14 = load i32, ptr %6, align 4
  %15 = icmp slt i32 %13, %14
  br i1 %15, label %16, label %55

16:                                               ; preds = %12
  %17 = load ptr, ptr %5, align 8
  %18 = getelementptr inbounds %struct.t_atoms, ptr %17, i32 0, i32 1
  %19 = load ptr, ptr %18, align 8
  %20 = load ptr, ptr %7, align 8
  %21 = icmp eq ptr %20, null
  br i1 %21, label %22, label %24

22:                                               ; preds = %16
  %23 = load i32, ptr %9, align 4
  br label %30

24:                                               ; preds = %16
  %25 = load ptr, ptr %7, align 8
  %26 = load i32, ptr %9, align 4
  %27 = sext i32 %26 to i64
  %28 = getelementptr inbounds i32, ptr %25, i64 %27
  %29 = load i32, ptr %28, align 4
  br label %30

30:                                               ; preds = %24, %22
  %31 = phi i32 [ %23, %22 ], [ %29, %24 ]
  %32 = sext i32 %31 to i64
  %33 = getelementptr inbounds %struct.t_atom, ptr %19, i64 %32
  %34 = getelementptr inbounds %struct.t_atom, ptr %33, i32 0, i32 7
  %35 = load i32, ptr %34, align 4
  store i32 %35, ptr %11, align 4
  %36 = load i32, ptr %11, align 4
  %37 = load i32, ptr %10, align 4
  %38 = icmp ne i32 %36, %37
  br i1 %38, label %39, label %50

39:                                               ; preds = %30
  %40 = load i32, ptr %8, align 4
  %41 = load ptr, ptr %5, align 8
  %42 = getelementptr inbounds %struct.t_atoms, ptr %41, i32 0, i32 6
  %43 = load ptr, ptr %42, align 8
  %44 = load i32, ptr %11, align 4
  %45 = sext i32 %44 to i64
  %46 = getelementptr inbounds %struct.t_resinfo, ptr %43, i64 %45
  %47 = getelementptr inbounds %struct.t_resinfo, ptr %46, i32 0, i32 1
  store i32 %40, ptr %47, align 8
  %48 = load i32, ptr %8, align 4
  %49 = add nsw i32 %48, 1
  store i32 %49, ptr %8, align 4
  br label %50

50:                                               ; preds = %39, %30
  %51 = load i32, ptr %11, align 4
  store i32 %51, ptr %10, align 4
  br label %52

52:                                               ; preds = %50
  %53 = load i32, ptr %9, align 4
  %54 = add nsw i32 %53, 1
  store i32 %54, ptr %9, align 4
  br label %12, !llvm.loop !34

55:                                               ; preds = %12
  ret void
}