; Function Attrs: mustprogress nofree norecurse nosync nounwind memory(readwrite, inaccessiblemem: none) uwtable
define internal fastcc void @_ZL11renum_resnrP7t_atomsiPKii(ptr nocapture noundef readonly %0, i32 noundef %1, ptr noundef readonly %2, i32 noundef %3) unnamed_addr #11 {
  %5 = icmp sgt i32 %1, 0
  br i1 %5, label %.lr.ph, label %._crit_edge

.lr.ph:                                           ; preds = %4
  %6 = getelementptr inbounds i8, ptr %0, i64 8
  %7 = icmp eq ptr %2, null
  %8 = getelementptr inbounds i8, ptr %0, i64 48
  %wide.trip.count26 = zext nneg i32 %1 to i64
  br i1 %7, label %.lr.ph.split.us, label %.lr.ph.split

.lr.ph.split.us:                                  ; preds = %.lr.ph, %17
  %indvars.iv23 = phi i64 [ %indvars.iv.next24, %17 ], [ 0, %.lr.ph ]
  %.020.us = phi i32 [ %.1.us, %17 ], [ %3, %.lr.ph ]
  %.01419.us = phi i32 [ %11, %17 ], [ -1, %.lr.ph ]
  %9 = load ptr, ptr %6, align 8
  %10 = getelementptr inbounds %struct.t_atom, ptr %9, i64 %indvars.iv23, i32 7
  %11 = load i32, ptr %10, align 4
  %.not.us = icmp eq i32 %11, %.01419.us
  br i1 %.not.us, label %17, label %12

12:                                               ; preds = %.lr.ph.split.us
  %13 = load ptr, ptr %8, align 8
  %14 = sext i32 %11 to i64
  %15 = getelementptr inbounds %struct.t_resinfo, ptr %13, i64 %14, i32 1
  store i32 %.020.us, ptr %15, align 8
  %16 = add nuw nsw i32 %.020.us, 1
  br label %17

17:                                               ; preds = %12, %.lr.ph.split.us
  %.1.us = phi i32 [ %16, %12 ], [ %.020.us, %.lr.ph.split.us ]
  %indvars.iv.next24 = add nuw nsw i64 %indvars.iv23, 1
  %exitcond27.not = icmp eq i64 %indvars.iv.next24, %wide.trip.count26
  br i1 %exitcond27.not, label %._crit_edge, label %.lr.ph.split.us, !llvm.loop !28

.lr.ph.split:                                     ; preds = %.lr.ph, %29
  %indvars.iv = phi i64 [ %indvars.iv.next, %29 ], [ 0, %.lr.ph ]
  %.020 = phi i32 [ %.1, %29 ], [ %3, %.lr.ph ]
  %.01419 = phi i32 [ %23, %29 ], [ -1, %.lr.ph ]
  %18 = load ptr, ptr %6, align 8
  %19 = getelementptr inbounds i32, ptr %2, i64 %indvars.iv
  %20 = load i32, ptr %19, align 4
  %21 = sext i32 %20 to i64
  %22 = getelementptr inbounds %struct.t_atom, ptr %18, i64 %21, i32 7
  %23 = load i32, ptr %22, align 4
  %.not = icmp eq i32 %23, %.01419
  br i1 %.not, label %29, label %24

24:                                               ; preds = %.lr.ph.split
  %25 = load ptr, ptr %8, align 8
  %26 = sext i32 %23 to i64
  %27 = getelementptr inbounds %struct.t_resinfo, ptr %25, i64 %26, i32 1
  store i32 %.020, ptr %27, align 8
  %28 = add nuw nsw i32 %.020, 1
  br label %29

29:                                               ; preds = %24, %.lr.ph.split
  %.1 = phi i32 [ %28, %24 ], [ %.020, %.lr.ph.split ]
  %indvars.iv.next = add nuw nsw i64 %indvars.iv, 1
  %exitcond.not = icmp eq i64 %indvars.iv.next, %wide.trip.count26
  br i1 %exitcond.not, label %._crit_edge, label %.lr.ph.split, !llvm.loop !28

._crit_edge:                                      ; preds = %29, %17, %4
  ret void
}